; Function Attrs: null_pointer_is_valid sspstrong uwtable
define internal noundef i32 @dissect_camel_T_parameter(i1 zeroext %0, ptr noundef %1, i32 noundef returned %2, ptr noundef readonly captures(none) %3, ptr noundef %4, i32 %5) #0 {
  %7 = alloca %struct._asn1_ctx_t, align 8
  %8 = alloca %struct._asn1_ctx_t, align 8
  %9 = alloca %struct._asn1_ctx_t, align 8
  %10 = alloca %struct._asn1_ctx_t, align 8
  %11 = load i32, ptr @errorCode, align 4
  %12 = getelementptr inbounds nuw i8, ptr %3, i64 16
  %13 = load ptr, ptr %12, align 8
  switch i32 %11, label %27 [
    i32 1, label %14
    i32 10, label %18
    i32 11, label %21
    i32 12, label %24
  ]

14:                                               ; preds = %6
  call void @llvm.lifetime.start.p0(i64 208, ptr nonnull %10) #12
  call void @asn1_ctx_init(ptr noundef nonnull %10, i32 noundef 0, i1 noundef zeroext true, ptr noundef %13)
  %15 = load i32, ptr @hf_camel_PAR_cancelFailed_PDU, align 4
  %16 = load i32, ptr @ett_camel_PAR_cancelFailed, align 4
  %17 = call i32 @dissect_ber_sequence(i1 noundef zeroext false, ptr noundef nonnull %10, ptr noundef %4, ptr noundef %1, i32 noundef 0, ptr noundef nonnull @PAR_cancelFailed_sequence, i32 noundef %15, i32 noundef %16)
  call void @llvm.lifetime.end.p0(i64 208, ptr nonnull %10) #12
  br label %dissect_returnErrorData.exit

18:                                               ; preds = %6
  call void @llvm.lifetime.start.p0(i64 208, ptr nonnull %9) #12
  call void @asn1_ctx_init(ptr noundef nonnull %9, i32 noundef 0, i1 noundef zeroext true, ptr noundef %13)
  %19 = load i32, ptr @hf_camel_PAR_requestedInfoError_PDU, align 4
  %20 = call i32 @dissect_ber_integer(i1 noundef zeroext false, ptr noundef nonnull %9, ptr noundef %4, ptr noundef %1, i32 noundef 0, i32 noundef %19, ptr noundef null)
  call void @llvm.lifetime.end.p0(i64 208, ptr nonnull %9) #12
  br label %dissect_returnErrorData.exit

21:                                               ; preds = %6
  call void @llvm.lifetime.start.p0(i64 208, ptr nonnull %8) #12
  call void @asn1_ctx_init(ptr noundef nonnull %8, i32 noundef 0, i1 noundef zeroext true, ptr noundef %13)
  %22 = load i32, ptr @hf_camel_UnavailableNetworkResource_PDU, align 4
  %23 = call i32 @dissect_ber_integer(i1 noundef zeroext false, ptr noundef nonnull %8, ptr noundef %4, ptr noundef %1, i32 noundef 0, i32 noundef %22, ptr noundef null)
  call void @llvm.lifetime.end.p0(i64 208, ptr nonnull %8) #12
  br label %dissect_returnErrorData.exit

24:                                               ; preds = %6
  call void @llvm.lifetime.start.p0(i64 208, ptr nonnull %7) #12
  call void @asn1_ctx_init(ptr noundef nonnull %7, i32 noundef 0, i1 noundef zeroext true, ptr noundef %13)
  %25 = load i32, ptr @hf_camel_PAR_taskRefused_PDU, align 4
  %26 = call i32 @dissect_ber_integer(i1 noundef zeroext false, ptr noundef nonnull %7, ptr noundef %4, ptr noundef %1, i32 noundef 0, i32 noundef %25, ptr noundef null)
  call void @llvm.lifetime.end.p0(i64 208, ptr nonnull %7) #12
  br label %dissect_returnErrorData.exit

27:                                               ; preds = %6
  %28 = tail call ptr (ptr, ptr, ptr, ptr, i32, i32, ptr, ...) @proto_tree_add_expert_format(ptr noundef %4, ptr noundef %13, ptr noundef nonnull @ei_camel_unknown_returnErrorData, ptr noundef %1, i32 noundef %2, i32 noundef -1, ptr noundef nonnull @.str.1674, i32 noundef %11)
  br label %dissect_returnErrorData.exit

dissect_returnErrorData.exit:                     ; preds = %14, %18, %21, %24, %27
  ret i32 %2
}